target datalayout = "e-m:e-p270:32:32-p271:32:32-p272:64:64-i64:64-i128:128-f80:128-n8:16:32:64-S128"
target triple = "x86_64-pc-linux-gnu"

%struct.slurm_acct_storage_ops = type { ptr, ptr, ptr, ptr, ptr, ptr, ptr, ptr, ptr, ptr, ptr, ptr, ptr, ptr, ptr, ptr, ptr, ptr, ptr, ptr, ptr, ptr, ptr, ptr, ptr, ptr, ptr, ptr, ptr, ptr, ptr, ptr, ptr, ptr, ptr, ptr, ptr, ptr, ptr, ptr, ptr, ptr, ptr, ptr, ptr, ptr, ptr, ptr, ptr, ptr, ptr, ptr, ptr, ptr, ptr, ptr, ptr, ptr, ptr, ptr, ptr, ptr, ptr, ptr, ptr, ptr, ptr, ptr, ptr, ptr, ptr, ptr, ptr, ptr, ptr, ptr, ptr, ptr, ptr, ptr }

@plugin_inited = internal global i32 0, align 4
@ops = internal global %struct.slurm_acct_storage_ops zeroinitializer, align 8

; Function Attrs: nounwind uwtable
define dso_local ptr @acct_storage_g_get_connection(i32 noundef %0, ptr noundef %1, i1 noundef zeroext %2, ptr noundef %3) #0 {
  %5 = alloca ptr, align 8
  %6 = alloca i32, align 4
  %7 = alloca ptr, align 8
  %8 = alloca i8, align 1
  %9 = alloca ptr, align 8
  store i32 %0, ptr %6, align 4
  store ptr %1, ptr %7, align 8
  %10 = zext i1 %2 to i8
  store i8 %10, ptr %8, align 1
  store ptr %3, ptr %9, align 8
  %11 = load i32, ptr @plugin_inited, align 4
  %12 = icmp eq i32 %11, 1
  br i1 %12, label %13, label %14

13:                                               ; preds = %4
  store ptr null, ptr %5, align 8
  br label %22

14:                                               ; preds = %4
  %15 = load ptr, ptr @ops, align 8
  %16 = load i32, ptr %6, align 4
  %17 = load ptr, ptr %7, align 8
  %18 = load i8, ptr %8, align 1, !range !8, !noundef !9
  %19 = trunc i8 %18 to i1
  %20 = load ptr, ptr %9, align 8
  %21 = call ptr %15(i32 noundef %16, ptr noundef %17, i1 noundef zeroext %19, ptr noundef %20)
  store ptr %21, ptr %5, align 8
  br label %22

22:                                               ; preds = %14, %13
  %23 = load ptr, ptr %5, align 8
  ret ptr %23
}